; Function Attrs: mustprogress uwtable
define void @_ZN7rocksdb13TraceAnalyzer6HandleERKNS_19GetQueryTraceRecordEPSt10unique_ptrINS_17TraceRecordResultESt14default_deleteIS5_EE(ptr noalias sret(%"class.rocksdb::Status") align 8 %agg.result, ptr noundef nonnull align 8 dereferenceable(1484) %this, ptr noundef nonnull align 8 dereferenceable(120) %record, ptr nocapture readnone %0) unnamed_addr #2 align 2 {
entry:
  %ref.tmp = alloca %"class.rocksdb::Slice", align 8
  %total_gets_ = getelementptr inbounds i8, ptr %this, i64 1256
  %1 = load i64, ptr %total_gets_, align 8
  %inc = add i64 %1, 1
  store i64 %inc, ptr %total_gets_, align 8
  %vtable = load ptr, ptr %record, align 8
  %vfn = getelementptr inbounds i8, ptr %vtable, i64 24
  %2 = load ptr, ptr %vfn, align 8
  %call = tail call noundef i64 %2(ptr noundef nonnull align 8 dereferenceable(16) %record)
  %vtable2 = load ptr, ptr %record, align 8
  %vfn3 = getelementptr inbounds i8, ptr %vtable2, i64 40
  %3 = load ptr, ptr %vfn3, align 8
  %call4 = tail call noundef i32 %3(ptr noundef nonnull align 8 dereferenceable(120) %record)
  %vtable5 = load ptr, ptr %record, align 8
  %vfn6 = getelementptr inbounds i8, ptr %vtable5, i64 48
  %4 = load ptr, ptr %vfn6, align 8
  %call7 = tail call { ptr, i64 } %4(ptr noundef nonnull align 8 dereferenceable(120) %record)
  %5 = extractvalue { ptr, i64 } %call7, 0
  store ptr %5, ptr %ref.tmp, align 8
  %6 = getelementptr inbounds i8, ptr %ref.tmp, i64 8
  %7 = extractvalue { ptr, i64 } %call7, 1
  store i64 %7, ptr %6, align 8
  call void @_ZN7rocksdb13TraceAnalyzer20OutputAnalysisResultENS_18TraceOperationTypeEmjRKNS_5SliceEm(ptr sret(%"class.rocksdb::Status") align 8 %agg.result, ptr noundef nonnull align 8 dereferenceable(1484) %this, i32 noundef 0, i64 noundef %call, i32 noundef %call4, ptr noundef nonnull align 8 dereferenceable(16) %ref.tmp, i64 noundef 0)
  ret void
}